target datalayout = "e-m:e-p270:32:32-p271:32:32-p272:64:64-i64:64-i128:128-f80:128-n8:16:32:64-S128"
target triple = "x86_64-pc-linux-gnu"

%struct.ma_vec3f = type { float, float, float }
%struct.ma_gainer_config = type { i32, i32 }
%struct.ma_gainer = type { %struct.ma_gainer_config, i32, float, ptr, ptr, ptr, i32 }
%struct.ma_atomic_vec3f = type { %struct.ma_vec3f, i32 }
%struct.ma_spatializer = type { i32, i32, ptr, i32, i32, i32, float, float, float, float, float, float, float, float, float, float, i32, %struct.ma_atomic_vec3f, %struct.ma_atomic_vec3f, %struct.ma_atomic_vec3f, float, float, %struct.ma_gainer, ptr, ptr, i32 }
%union.ma_atomic_if32 = type { i32 }

; Function Attrs: alwaysinline nounwind uwtable
define internal float @ma_atomic_load_explicit_f32(ptr noundef %0, i32 noundef %1) #7 {
  %3 = alloca ptr, align 8
  %4 = alloca i32, align 4
  %5 = alloca %union.ma_atomic_if32, align 4
  %6 = alloca i32, align 4
  store ptr %0, ptr %3, align 8, !tbaa !353
  store i32 %1, ptr %4, align 4, !tbaa !8
  call void @llvm.lifetime.start.p0(i64 4, ptr %5) #16
  %7 = load ptr, ptr %3, align 8, !tbaa !353
  %8 = load i32, ptr %4, align 4, !tbaa !8
  switch i32 %8, label %9 [
    i32 1, label %11
    i32 2, label %11
    i32 5, label %13
  ]

9:                                                ; preds = %2
  %10 = load atomic volatile i32, ptr %7 monotonic, align 4
  store i32 %10, ptr %6, align 4
  br label %15

11:                                               ; preds = %2, %2
  %12 = load atomic volatile i32, ptr %7 acquire, align 4
  store i32 %12, ptr %6, align 4
  br label %15

13:                                               ; preds = %2
  %14 = load atomic volatile i32, ptr %7 seq_cst, align 4
  store i32 %14, ptr %6, align 4
  br label %15

15:                                               ; preds = %13, %11, %9
  %16 = load i32, ptr %6, align 4, !tbaa !8
  store i32 %16, ptr %5, align 4, !tbaa !14
  %17 = load float, ptr %5, align 4, !tbaa !14
  call void @llvm.lifetime.end.p0(i64 4, ptr %5) #16
  ret float %17
}

; Function Attrs: nounwind uwtable
define float @ma_spatializer_get_doppler_factor(ptr noundef %0) #0 {
  %2 = alloca float, align 4
  %3 = alloca ptr, align 8
  store ptr %0, ptr %3, align 8, !tbaa !25
  %4 = load ptr, ptr %3, align 8, !tbaa !25
  %5 = icmp eq ptr %4, null
  br i1 %5, label %6, label %7

6:                                                ; preds = %1
  store float 1.000000e+00, ptr %2, align 4
  br label %11

7:                                                ; preds = %1
  %8 = load ptr, ptr %3, align 8, !tbaa !25
  %9 = getelementptr inbounds nuw %struct.ma_spatializer, ptr %8, i32 0, i32 14
  %10 = call float @ma_atomic_load_explicit_f32(ptr noundef %9, i32 noundef 5)
  store float %10, ptr %2, align 4
  br label %11

11:                                               ; preds = %7, %6
  %12 = load float, ptr %2, align 4
  ret float %12
}